target datalayout = "e-m:e-p270:32:32-p271:32:32-p272:64:64-i64:64-i128:128-f80:128-n8:16:32:64-S128"
target triple = "x86_64-pc-linux-gnu"

%struct.OSSL_TIME = type { i64 }
%struct.ssl_st = type { i32, ptr, ptr, ptr, %struct.CRYPTO_REF_COUNT, ptr, %struct.crypto_ex_data_st }
%struct.CRYPTO_REF_COUNT = type { i32 }
%struct.crypto_ex_data_st = type { ptr, ptr }
%struct.ssl_method_st = type { i32, i32, i64, ptr, ptr, ptr, ptr, ptr, ptr, ptr, ptr, ptr, ptr, ptr, ptr, ptr, ptr, ptr, ptr, ptr, ptr, ptr, ptr, ptr, ptr, ptr, ptr, ptr, ptr, ptr, ptr, ptr }
%struct.ssl_connection_st = type { %struct.ssl_st, ptr, i32, ptr, ptr, ptr, i32, ptr, i32, i32, i32, i32, %struct.OSSL_TIME, %struct.OSSL_TIME, %struct.ossl_statem_st, i32, ptr, ptr, i64, i64, i64, %struct.ossl_quic_tls_callbacks_st, ptr, ptr, %struct.anon, ptr, ptr, ptr, i32, ptr, %struct.ssl_dane_st, ptr, ptr, ptr, ptr, i32, [64 x i8], [64 x i8], [64 x i8], [64 x i8], [64 x i8], [64 x i8], [64 x i8], [64 x i8], [64 x i8], [64 x i8], [64 x i8], [64 x i8], ptr, [64 x i8], i64, i32, i64, [32 x i8], ptr, ptr, ptr, i64, ptr, [32 x i8], i64, i32, ptr, ptr, i32, i32, ptr, ptr, ptr, ptr, ptr, i64, ptr, ptr, i64, i32, i32, i32, i64, i32, i32, i64, i64, i64, %struct.anon.1, ptr, i32, ptr, ptr, ptr, i32, ptr, ptr, ptr, i32, i32, i32, i32, ptr, i64, i32, ptr, %struct.srp_ctx_st, ptr, %struct.record_layer_st, ptr, ptr, ptr, ptr, i64, i32, i32, i32, i64, i64, i64, ptr, ptr, ptr, ptr, ptr, i64, ptr, i64, ptr, i64 }
%struct.ossl_statem_st = type { i32, i32, i32, i32, i32, i32, i32, i32, i32, i32, i32, i32, i32, ptr, ptr, ptr, i8 }
%struct.ossl_quic_tls_callbacks_st = type { ptr, ptr, ptr, ptr, ptr, ptr }
%struct.anon = type { i64, [32 x i8], [32 x i8], ptr, ptr, i32, i32, i32, i32, [2 x i8], i32, i32, i32, i32, %struct.anon.0, [64 x i8], i64, [64 x i8], i64, i32, i32, ptr, i64, ptr, i64, i32, i8, i8, i16, ptr, i16 }
%struct.anon.0 = type { [128 x i8], i64, [128 x i8], i64, i64, i32, ptr, ptr, [4 x ptr], [4 x i16], i64, i32, ptr, i64, ptr, i64, ptr, ptr, ptr, i32, i64, ptr, i32, ptr, i64, ptr, i64, ptr, i64, ptr, ptr, ptr, ptr, i64, i64, ptr, ptr, i32, i32, i32, i32 }
%struct.ssl_dane_st = type { ptr, ptr, ptr, ptr, ptr, i32, i32, i32, i64 }
%struct.anon.1 = type { [29 x i8], ptr, ptr, ptr, i32, ptr, i16, i32, %struct.anon.2, i32, i32, i64, ptr, i64, ptr, i64, ptr, i64, ptr, i64, ptr, i64, ptr, ptr, ptr, ptr, ptr, ptr, ptr, i64, ptr, i64, i32, i32, i32, i32, ptr, i64, i32, i8, i32, [4 x i32], i32, i8, i8, i8, i8 }
%struct.anon.2 = type { ptr, ptr, ptr, i64 }
%struct.srp_ctx_st = type { ptr, ptr, ptr, ptr, ptr, ptr, ptr, ptr, ptr, ptr, ptr, ptr, ptr, ptr, i32, i64 }
%struct.record_layer_st = type { ptr, ptr, ptr, ptr, ptr, ptr, ptr, ptr, i64, i32, i64, [4 x i8], i64, i64, i8, ptr, i32, ptr, ptr, ptr, i64, i64, i64, i64, [32 x %struct.tls_record_st] }
%struct.tls_record_st = type { ptr, i32, i8, ptr, ptr, i64, i64, i16, [8 x i8] }
%struct.ssl_ctx_st = type { ptr, ptr, ptr, ptr, ptr, ptr, ptr, i64, ptr, ptr, i32, %struct.OSSL_TIME, ptr, ptr, ptr, %struct.anon.3, %struct.CRYPTO_REF_COUNT, ptr, ptr, ptr, ptr, ptr, ptr, ptr, ptr, ptr, %struct.crypto_ex_data_st, ptr, ptr, ptr, ptr, ptr, ptr, ptr, i64, i32, i32, i32, i64, ptr, ptr, i32, ptr, ptr, i32, i64, [32 x i8], ptr, ptr, ptr, i32, ptr, ptr, ptr, i64, i64, i64, i64, ptr, ptr, ptr, ptr, ptr, %struct.anon.4, ptr, ptr, ptr, ptr, %struct.srp_ctx_st, %struct.dane_ctx_st, ptr, ptr, ptr, ptr, i32, i32, ptr, ptr, i64, i64, ptr, ptr, ptr, i64, ptr, ptr, i32, ptr, ptr, ptr, [14 x i32], [24 x ptr], [14 x ptr], [14 x i64], i64, ptr, ptr, ptr, i64, i64, ptr, i64, i64, i32, i32, i32, i32, ptr, i64, ptr, i64, i64, ptr, ptr }
%struct.anon.3 = type { i32, i32, i32, i32, i32, i32, i32, i32, i32, i32, i32 }
%struct.anon.4 = type { ptr, ptr, [16 x i8], ptr, ptr, ptr, ptr, ptr, i32, i8, i64, ptr, i64, ptr, i64, ptr, i64, ptr, ptr, i64, ptr, ptr, ptr, i64, ptr, ptr, ptr, ptr, [32 x i8] }
%struct.dane_ctx_st = type { ptr, ptr, i8, i64 }
%struct.tls_group_info_st = type { ptr, ptr, ptr, i32, i16, i32, i32, i32, i32, i8 }
%struct.ssl3_enc_method = type { ptr, ptr, ptr, ptr, ptr, i64, ptr, i64, ptr, ptr, i32, ptr, ptr, ptr }

@.str.3 = private unnamed_addr constant [3 x i8] c"EC\00", align 1
@.str.4 = private unnamed_addr constant [7 x i8] c"X25519\00", align 1
@.str.5 = private unnamed_addr constant [5 x i8] c"X448\00", align 1

; Function Attrs: nounwind uwtable
define ptr @tls1_group_id_lookup(ptr noundef %0, i16 noundef zeroext %1) #1 {
  %3 = alloca ptr, align 8
  %4 = alloca ptr, align 8
  %5 = alloca i16, align 2
  %6 = alloca i64, align 8
  %7 = alloca i32, align 4
  store ptr %0, ptr %4, align 8, !tbaa !80
  store i16 %1, ptr %5, align 2, !tbaa !100
  call void @llvm.lifetime.start.p0(i64 8, ptr %6) #8
  store i64 0, ptr %6, align 8, !tbaa !3
  br label %8

8:                                                ; preds = %33, %2
  %9 = load i64, ptr %6, align 8, !tbaa !3
  %10 = load ptr, ptr %4, align 8, !tbaa !80
  %11 = getelementptr inbounds nuw %struct.ssl_ctx_st, ptr %10, i32 0, i32 98
  %12 = load i64, ptr %11, align 8, !tbaa !96
  %13 = icmp ult i64 %9, %12
  br i1 %13, label %14, label %36

14:                                               ; preds = %8
  %15 = load ptr, ptr %4, align 8, !tbaa !80
  %16 = getelementptr inbounds nuw %struct.ssl_ctx_st, ptr %15, i32 0, i32 97
  %17 = load ptr, ptr %16, align 8, !tbaa !97
  %18 = load i64, ptr %6, align 8, !tbaa !3
  %19 = getelementptr inbounds nuw %struct.tls_group_info_st, ptr %17, i64 %18
  %20 = getelementptr inbounds nuw %struct.tls_group_info_st, ptr %19, i32 0, i32 4
  %21 = load i16, ptr %20, align 4, !tbaa !98
  %22 = zext i16 %21 to i32
  %23 = load i16, ptr %5, align 2, !tbaa !100
  %24 = zext i16 %23 to i32
  %25 = icmp eq i32 %22, %24
  br i1 %25, label %26, label %32

26:                                               ; preds = %14
  %27 = load ptr, ptr %4, align 8, !tbaa !80
  %28 = getelementptr inbounds nuw %struct.ssl_ctx_st, ptr %27, i32 0, i32 97
  %29 = load ptr, ptr %28, align 8, !tbaa !97
  %30 = load i64, ptr %6, align 8, !tbaa !3
  %31 = getelementptr inbounds nuw %struct.tls_group_info_st, ptr %29, i64 %30
  store ptr %31, ptr %3, align 8
  store i32 1, ptr %7, align 4
  br label %37

32:                                               ; preds = %14
  br label %33

33:                                               ; preds = %32
  %34 = load i64, ptr %6, align 8, !tbaa !3
  %35 = add i64 %34, 1
  store i64 %35, ptr %6, align 8, !tbaa !3
  br label %8, !llvm.loop !125

36:                                               ; preds = %8
  store ptr null, ptr %3, align 8
  store i32 1, ptr %7, align 4
  br label %37

37:                                               ; preds = %36, %26
  call void @llvm.lifetime.end.p0(i64 8, ptr %6) #8
  %38 = load ptr, ptr %3, align 8
  ret ptr %38
}

; Function Attrs: nounwind uwtable
define i32 @tls_valid_group(ptr noundef %0, i16 noundef zeroext %1, i32 noundef %2, i32 noundef %3, i32 noundef %4, ptr noundef %5) #1 {
  %7 = alloca i32, align 4
  %8 = alloca ptr, align 8
  %9 = alloca i16, align 2
  %10 = alloca i32, align 4
  %11 = alloca i32, align 4
  %12 = alloca i32, align 4
  %13 = alloca ptr, align 8
  %14 = alloca ptr, align 8
  %15 = alloca i32, align 4
  %16 = alloca i32, align 4
  %17 = alloca i32, align 4
  %18 = alloca i32, align 4
  store ptr %0, ptr %8, align 8, !tbaa !25
  store i16 %1, ptr %9, align 2, !tbaa !100
  store i32 %2, ptr %10, align 4, !tbaa !128
  store i32 %3, ptr %11, align 4, !tbaa !128
  store i32 %4, ptr %12, align 4, !tbaa !128
  store ptr %5, ptr %13, align 8, !tbaa !151
  call void @llvm.lifetime.start.p0(i64 8, ptr %14) #8
  %19 = load ptr, ptr %8, align 8, !tbaa !25
  %20 = getelementptr inbounds nuw %struct.ssl_connection_st, ptr %19, i32 0, i32 0
  %21 = getelementptr inbounds nuw %struct.ssl_st, ptr %20, i32 0, i32 1
  %22 = load ptr, ptr %21, align 8, !tbaa !137
  %23 = load i16, ptr %9, align 2, !tbaa !100
  %24 = call ptr @tls1_group_id_lookup(ptr noundef %22, i16 noundef zeroext %23)
  store ptr %24, ptr %14, align 8, !tbaa !126
  call void @llvm.lifetime.start.p0(i64 4, ptr %15) #8
  call void @llvm.lifetime.start.p0(i64 4, ptr %16) #8
  call void @llvm.lifetime.start.p0(i64 4, ptr %17) #8
  %25 = load ptr, ptr %13, align 8, !tbaa !151
  %26 = icmp ne ptr %25, null
  br i1 %26, label %27, label %29

27:                                               ; preds = %6
  %28 = load ptr, ptr %13, align 8, !tbaa !151
  store i32 0, ptr %28, align 4, !tbaa !128
  br label %29

29:                                               ; preds = %27, %6
  %30 = load ptr, ptr %14, align 8, !tbaa !126
  %31 = icmp eq ptr %30, null
  br i1 %31, label %32, label %33

32:                                               ; preds = %29
  store i32 0, ptr %7, align 4
  store i32 1, ptr %18, align 4
  br label %161

33:                                               ; preds = %29
  %34 = load ptr, ptr %8, align 8, !tbaa !25
  %35 = getelementptr inbounds nuw %struct.ssl_connection_st, ptr %34, i32 0, i32 0
  %36 = getelementptr inbounds nuw %struct.ssl_st, ptr %35, i32 0, i32 3
  %37 = load ptr, ptr %36, align 8, !tbaa !152
  %38 = getelementptr inbounds nuw %struct.ssl_method_st, ptr %37, i32 0, i32 28
  %39 = load ptr, ptr %38, align 8, !tbaa !153
  %40 = getelementptr inbounds nuw %struct.ssl3_enc_method, ptr %39, i32 0, i32 10
  %41 = load i32, ptr %40, align 8, !tbaa !154
  %42 = and i32 %41, 8
  %43 = icmp ne i32 %42, 0
  br i1 %43, label %44, label %48

44:                                               ; preds = %33
  %45 = load ptr, ptr %14, align 8, !tbaa !126
  %46 = getelementptr inbounds nuw %struct.tls_group_info_st, ptr %45, i32 0, i32 7
  %47 = load i32, ptr %46, align 8, !tbaa !156
  br label %52

48:                                               ; preds = %33
  %49 = load ptr, ptr %14, align 8, !tbaa !126
  %50 = getelementptr inbounds nuw %struct.tls_group_info_st, ptr %49, i32 0, i32 5
  %51 = load i32, ptr %50, align 8, !tbaa !157
  br label %52

52:                                               ; preds = %48, %44
  %53 = phi i32 [ %47, %44 ], [ %51, %48 ]
  store i32 %53, ptr %16, align 4, !tbaa !128
  %54 = load ptr, ptr %8, align 8, !tbaa !25
  %55 = getelementptr inbounds nuw %struct.ssl_connection_st, ptr %54, i32 0, i32 0
  %56 = getelementptr inbounds nuw %struct.ssl_st, ptr %55, i32 0, i32 3
  %57 = load ptr, ptr %56, align 8, !tbaa !152
  %58 = getelementptr inbounds nuw %struct.ssl_method_st, ptr %57, i32 0, i32 28
  %59 = load ptr, ptr %58, align 8, !tbaa !153
  %60 = getelementptr inbounds nuw %struct.ssl3_enc_method, ptr %59, i32 0, i32 10
  %61 = load i32, ptr %60, align 8, !tbaa !154
  %62 = and i32 %61, 8
  %63 = icmp ne i32 %62, 0
  br i1 %63, label %64, label %68

64:                                               ; preds = %52
  %65 = load ptr, ptr %14, align 8, !tbaa !126
  %66 = getelementptr inbounds nuw %struct.tls_group_info_st, ptr %65, i32 0, i32 8
  %67 = load i32, ptr %66, align 4, !tbaa !158
  br label %72

68:                                               ; preds = %52
  %69 = load ptr, ptr %14, align 8, !tbaa !126
  %70 = getelementptr inbounds nuw %struct.tls_group_info_st, ptr %69, i32 0, i32 6
  %71 = load i32, ptr %70, align 4, !tbaa !159
  br label %72

72:                                               ; preds = %68, %64
  %73 = phi i32 [ %67, %64 ], [ %71, %68 ]
  store i32 %73, ptr %17, align 4, !tbaa !128
  %74 = load i32, ptr %16, align 4, !tbaa !128
  %75 = icmp slt i32 %74, 0
  br i1 %75, label %79, label %76

76:                                               ; preds = %72
  %77 = load i32, ptr %17, align 4, !tbaa !128
  %78 = icmp slt i32 %77, 0
  br i1 %78, label %79, label %80

79:                                               ; preds = %76, %72
  store i32 0, ptr %7, align 4
  store i32 1, ptr %18, align 4
  br label %161

80:                                               ; preds = %76
  %81 = load i32, ptr %17, align 4, !tbaa !128
  %82 = icmp eq i32 %81, 0
  br i1 %82, label %83, label %84

83:                                               ; preds = %80
  store i32 1, ptr %15, align 4, !tbaa !128
  br label %91

84:                                               ; preds = %80
  %85 = load ptr, ptr %8, align 8, !tbaa !25
  %86 = load i32, ptr %10, align 4, !tbaa !128
  %87 = load i32, ptr %17, align 4, !tbaa !128
  %88 = call i32 @ssl_version_cmp(ptr noundef %85, i32 noundef %86, i32 noundef %87)
  %89 = icmp sle i32 %88, 0
  %90 = zext i1 %89 to i32
  store i32 %90, ptr %15, align 4, !tbaa !128
  br label %91

91:                                               ; preds = %84, %83
  %92 = load i32, ptr %16, align 4, !tbaa !128
  %93 = icmp sgt i32 %92, 0
  br i1 %93, label %94, label %103

94:                                               ; preds = %91
  %95 = load ptr, ptr %8, align 8, !tbaa !25
  %96 = load i32, ptr %11, align 4, !tbaa !128
  %97 = load i32, ptr %16, align 4, !tbaa !128
  %98 = call i32 @ssl_version_cmp(ptr noundef %95, i32 noundef %96, i32 noundef %97)
  %99 = icmp sge i32 %98, 0
  %100 = zext i1 %99 to i32
  %101 = load i32, ptr %15, align 4, !tbaa !128
  %102 = and i32 %101, %100
  store i32 %102, ptr %15, align 4, !tbaa !128
  br label %103

103:                                              ; preds = %94, %91
  %104 = load ptr, ptr %8, align 8, !tbaa !25
  %105 = getelementptr inbounds nuw %struct.ssl_connection_st, ptr %104, i32 0, i32 0
  %106 = getelementptr inbounds nuw %struct.ssl_st, ptr %105, i32 0, i32 3
  %107 = load ptr, ptr %106, align 8, !tbaa !152
  %108 = getelementptr inbounds nuw %struct.ssl_method_st, ptr %107, i32 0, i32 28
  %109 = load ptr, ptr %108, align 8, !tbaa !153
  %110 = getelementptr inbounds nuw %struct.ssl3_enc_method, ptr %109, i32 0, i32 10
  %111 = load i32, ptr %110, align 8, !tbaa !154
  %112 = and i32 %111, 8
  %113 = icmp ne i32 %112, 0
  br i1 %113, label %134, label %114

114:                                              ; preds = %103
  %115 = load i32, ptr %15, align 4, !tbaa !128
  %116 = icmp ne i32 %115, 0
  br i1 %116, label %117, label %133

117:                                              ; preds = %114
  %118 = load ptr, ptr %13, align 8, !tbaa !151
  %119 = icmp ne ptr %118, null
  br i1 %119, label %120, label %133

120:                                              ; preds = %117
  %121 = load i32, ptr %11, align 4, !tbaa !128
  %122 = icmp eq i32 %121, 772
  br i1 %122, label %123, label %133

123:                                              ; preds = %120
  %124 = load i32, ptr %17, align 4, !tbaa !128
  %125 = icmp eq i32 %124, 0
  br i1 %125, label %129, label %126

126:                                              ; preds = %123
  %127 = load i32, ptr %17, align 4, !tbaa !128
  %128 = icmp sge i32 %127, 772
  br label %129

129:                                              ; preds = %126, %123
  %130 = phi i1 [ true, %123 ], [ %128, %126 ]
  %131 = zext i1 %130 to i32
  %132 = load ptr, ptr %13, align 8, !tbaa !151
  store i32 %131, ptr %132, align 4, !tbaa !128
  br label %133

133:                                              ; preds = %129, %120, %117, %114
  br label %134

134:                                              ; preds = %133, %103
  %135 = load i32, ptr %12, align 4, !tbaa !128
  %136 = icmp ne i32 %135, 0
  br i1 %136, label %137, label %155

137:                                              ; preds = %134
  %138 = load ptr, ptr %14, align 8, !tbaa !126
  %139 = getelementptr inbounds nuw %struct.tls_group_info_st, ptr %138, i32 0, i32 2
  %140 = load ptr, ptr %139, align 8, !tbaa !160
  %141 = call i32 @strcmp(ptr noundef %140, ptr noundef @.str.3) #9
  %142 = icmp eq i32 %141, 0
  br i1 %142, label %155, label %143

143:                                              ; preds = %137
  %144 = load ptr, ptr %14, align 8, !tbaa !126
  %145 = getelementptr inbounds nuw %struct.tls_group_info_st, ptr %144, i32 0, i32 2
  %146 = load ptr, ptr %145, align 8, !tbaa !160
  %147 = call i32 @strcmp(ptr noundef %146, ptr noundef @.str.4) #9
  %148 = icmp eq i32 %147, 0
  br i1 %148, label %155, label %149

149:                                              ; preds = %143
  %150 = load ptr, ptr %14, align 8, !tbaa !126
  %151 = getelementptr inbounds nuw %struct.tls_group_info_st, ptr %150, i32 0, i32 2
  %152 = load ptr, ptr %151, align 8, !tbaa !160
  %153 = call i32 @strcmp(ptr noundef %152, ptr noundef @.str.5) #9
  %154 = icmp eq i32 %153, 0
  br label %155

155:                                              ; preds = %149, %143, %137, %134
  %156 = phi i1 [ true, %143 ], [ true, %137 ], [ true, %134 ], [ %154, %149 ]
  %157 = zext i1 %156 to i32
  %158 = load i32, ptr %15, align 4, !tbaa !128
  %159 = and i32 %158, %157
  store i32 %159, ptr %15, align 4, !tbaa !128
  %160 = load i32, ptr %15, align 4, !tbaa !128
  store i32 %160, ptr %7, align 4
  store i32 1, ptr %18, align 4
  br label %161

161:                                              ; preds = %155, %79, %32
  call void @llvm.lifetime.end.p0(i64 4, ptr %17) #8
  call void @llvm.lifetime.end.p0(i64 4, ptr %16) #8
  call void @llvm.lifetime.end.p0(i64 4, ptr %15) #8
  call void @llvm.lifetime.end.p0(i64 8, ptr %14) #8
  %162 = load i32, ptr %7, align 4
  ret i32 %162
}