; Function Attrs: nounwind uwtable
define range(i32 0, 2) i32 @tls_valid_group(ptr noundef %0, i16 noundef zeroext %1, i32 noundef %2, i32 noundef %3, i32 noundef %4, ptr noundef writeonly captures(address_is_null) %5) local_unnamed_addr #2 {
  %7 = getelementptr inbounds nuw i8, ptr %0, i64 8
  %8 = load ptr, ptr %7, align 8, !tbaa !126
  %9 = getelementptr inbounds nuw i8, ptr %8, i64 1664
  %10 = load i64, ptr %9, align 8, !tbaa !91
  %.not.i = icmp eq i64 %10, 0
  br i1 %.not.i, label %tls1_group_id_lookup.exit, label %.lr.ph.i

.lr.ph.i:                                         ; preds = %6
  %11 = getelementptr inbounds nuw i8, ptr %8, i64 1656
  %12 = load ptr, ptr %11, align 8, !tbaa !92
  br label %15

13:                                               ; preds = %15
  %14 = add nuw i64 %.09.i, 1
  %exitcond.not.i = icmp eq i64 %14, %10
  br i1 %exitcond.not.i, label %tls1_group_id_lookup.exit, label %15, !llvm.loop !119

15:                                               ; preds = %13, %.lr.ph.i
  %.09.i = phi i64 [ 0, %.lr.ph.i ], [ %14, %13 ]
  %16 = getelementptr inbounds nuw %struct.tls_group_info_st, ptr %12, i64 %.09.i
  %17 = getelementptr inbounds nuw i8, ptr %16, i64 28
  %18 = load i16, ptr %17, align 4, !tbaa !96
  %19 = icmp eq i16 %18, %1
  br i1 %19, label %tls1_group_id_lookup.exit, label %13

tls1_group_id_lookup.exit:                        ; preds = %13, %15, %6
  %.08.i = phi ptr [ null, %6 ], [ %16, %15 ], [ null, %13 ]
  %20 = icmp ne ptr %5, null
  br i1 %20, label %21, label %22

21:                                               ; preds = %tls1_group_id_lookup.exit
  store i32 0, ptr %5, align 4, !tbaa !135
  br label %22

22:                                               ; preds = %21, %tls1_group_id_lookup.exit
  %23 = icmp eq ptr %.08.i, null
  br i1 %23, label %79, label %24

24:                                               ; preds = %22
  %25 = getelementptr inbounds nuw i8, ptr %0, i64 24
  %26 = load ptr, ptr %25, align 8, !tbaa !136
  %27 = getelementptr inbounds nuw i8, ptr %26, i64 216
  %28 = load ptr, ptr %27, align 8, !tbaa !137
  %29 = getelementptr inbounds nuw i8, ptr %28, i64 80
  %30 = load i32, ptr %29, align 8, !tbaa !138
  %31 = and i32 %30, 8
  %.not = icmp eq i32 %31, 0
  %.in.v = select i1 %.not, i64 32, i64 40
  %.in = getelementptr inbounds nuw i8, ptr %.08.i, i64 %.in.v
  %32 = load i32, ptr %.in, align 8, !tbaa !135
  %.in47.v = select i1 %.not, i64 36, i64 44
  %.in47 = getelementptr inbounds nuw i8, ptr %.08.i, i64 %.in47.v
  %33 = load i32, ptr %.in47, align 4, !tbaa !135
  %34 = icmp slt i32 %32, 0
  %35 = icmp slt i32 %33, 0
  %or.cond = select i1 %34, i1 true, i1 %35
  br i1 %or.cond, label %79, label %36

36:                                               ; preds = %24
  %37 = icmp eq i32 %33, 0
  br i1 %37, label %42, label %38

38:                                               ; preds = %36
  %39 = tail call i32 @ssl_version_cmp(ptr noundef nonnull %0, i32 noundef %2, i32 noundef %33) #14
  %40 = icmp slt i32 %39, 1
  %41 = zext i1 %40 to i32
  br label %42

42:                                               ; preds = %36, %38
  %.040 = phi i32 [ %41, %38 ], [ 1, %36 ]
  %.not50 = icmp eq i32 %32, 0
  br i1 %.not50, label %46, label %43

43:                                               ; preds = %42
  %44 = tail call i32 @ssl_version_cmp(ptr noundef nonnull %0, i32 noundef %3, i32 noundef %32) #14
  %.inv = icmp slt i32 %44, 0
  %45 = select i1 %.inv, i32 0, i32 %.040
  br label %46

46:                                               ; preds = %43, %42
  %.1 = phi i32 [ %45, %43 ], [ %.040, %42 ]
  %47 = load ptr, ptr %25, align 8, !tbaa !136
  %48 = getelementptr inbounds nuw i8, ptr %47, i64 216
  %49 = load ptr, ptr %48, align 8, !tbaa !137
  %50 = getelementptr inbounds nuw i8, ptr %49, i64 80
  %51 = load i32, ptr %50, align 8, !tbaa !138
  %52 = and i32 %51, 8
  %.not48 = icmp eq i32 %52, 0
  br i1 %.not48, label %53, label %61

53:                                               ; preds = %46
  %54 = icmp ne i32 %.1, 0
  %55 = icmp eq i32 %3, 772
  %56 = and i1 %55, %54
  %or.cond5 = and i1 %20, %56
  br i1 %or.cond5, label %57, label %61

57:                                               ; preds = %53
  %58 = add nsw i32 %33, -772
  %59 = icmp ult i32 %58, -771
  %60 = zext i1 %59 to i32
  store i32 %60, ptr %5, align 4, !tbaa !135
  br label %61

61:                                               ; preds = %53, %57, %46
  %.not49 = icmp eq i32 %4, 0
  br i1 %.not49, label %76, label %sub_0

sub_0:                                            ; preds = %61
  %62 = getelementptr inbounds nuw i8, ptr %.08.i, i64 16
  %63 = load ptr, ptr %62, align 8, !tbaa !140
  %64 = load i8, ptr %63, align 1
  %.not51 = icmp eq i8 %64, 69
  br i1 %.not51, label %sub_1, label %.tail.thread

sub_1:                                            ; preds = %sub_0
  %65 = getelementptr inbounds nuw i8, ptr %63, i64 1
  %66 = load i8, ptr %65, align 1
  %.not52 = icmp eq i8 %66, 67
  br i1 %.not52, label %.tail, label %.tail.thread

.tail:                                            ; preds = %sub_1
  %67 = getelementptr inbounds nuw i8, ptr %63, i64 2
  %68 = load i8, ptr %67, align 1
  %69 = icmp eq i8 %68, 0
  br i1 %69, label %76, label %.tail.thread

.tail.thread:                                     ; preds = %sub_1, %sub_0, %.tail
  %70 = tail call i32 @strcmp(ptr noundef nonnull dereferenceable(1) %63, ptr noundef nonnull dereferenceable(7) @.str.4) #15
  %71 = icmp eq i32 %70, 0
  br i1 %71, label %76, label %72

72:                                               ; preds = %.tail.thread
  %73 = tail call i32 @strcmp(ptr noundef nonnull dereferenceable(1) %63, ptr noundef nonnull dereferenceable(5) @.str.5) #15
  %74 = icmp eq i32 %73, 0
  %75 = zext i1 %74 to i32
  br label %76

76:                                               ; preds = %72, %.tail.thread, %.tail, %61
  %77 = phi i32 [ 1, %.tail.thread ], [ 1, %.tail ], [ 1, %61 ], [ %75, %72 ]
  %78 = and i32 %77, %.1
  br label %79

79:                                               ; preds = %24, %22, %76
  %.0 = phi i32 [ %78, %76 ], [ 0, %22 ], [ 0, %24 ]
  ret i32 %.0
}